(dp0
I3
(dp1
S'diverging'
p2
(dp3
S'Spectral'
p4
(lp5
(F0.99
F0.55
F0.35
tp6
a(F1.0
F1.0
F0.75
tp7
a(F0.6
F0.84
F0.58
tp8
asS'RdYlGn'
p9
(lp10
(F0.99
F0.55
F0.35
tp11
a(F1.0
F1.0
F0.75
tp12
a(F0.57
F0.81
F0.38
tp13
asS'PRGn'
p14
(lp15
(F0.69
F0.55
F0.76
tp16
a(F0.97
F0.97
F0.97
tp17
a(F0.5
F0.75
F0.48
tp18
asS'RdBu'
p19
(lp20
(F0.94
F0.54
F0.38
tp21
a(F0.97
F0.97
F0.97
tp22
a(F0.4
F0.66
F0.81
tp23
asS'RdGy'
p24
(lp25
(F0.94
F0.54
F0.38
tp26
a(F1.0
F1.0
F1.0
tp27
a(F0.6
F0.6
F0.6
tp28
asS'RdYlBu'
p29
(lp30
(F0.99
F0.55
F0.35
tp31
a(F1.0
F1.0
F0.75
tp32
a(F0.57
F0.75
F0.86
tp33
asS'PiYG'
p34
(lp35
(F0.91
F0.64
F0.79
tp36
a(F0.97
F0.97
F0.97
tp37
a(F0.63
F0.84
F0.42
tp38
asS'PuOr'
p39
(lp40
(F0.95
F0.64
F0.25
tp41
a(F0.97
F0.97
F0.97
tp42
a(F0.6
F0.56
F0.76
tp43
asS'BrBG'
p44
(lp45
(F0.85
F0.7
F0.4
tp46
a(F0.96
F0.96
F0.96
tp47
a(F0.35
F0.71
F0.67
tp48
assS'qualitative'
p49
(dp50
S'Pastel2'
p51
(lp52
(F0.7
F0.89
F0.8
tp53
a(F0.99
F0.8
F0.67
tp54
a(F0.8
F0.84
F0.91
tp55
asS'Pastel1'
p56
(lp57
(F0.98
F0.71
F0.68
tp58
a(F0.7
F0.8
F0.89
tp59
a(F0.8
F0.92
F0.77
tp60
asS'Dark2'
p61
(lp62
(F0.11
F0.62
F0.47
tp63
a(F0.85
F0.37
F0.01
tp64
a(F0.46
F0.44
F0.7
tp65
asS'Accent'
p66
(lp67
(F0.5
F0.79
F0.5
tp68
a(F0.75
F0.68
F0.83
tp69
a(F0.99
F0.75
F0.53
tp70
asS'Paired'
p71
(lp72
(F0.65
F0.81
F0.89
tp73
a(F0.12
F0.47
F0.71
tp74
a(F0.7
F0.87
F0.54
tp75
asS'Set1'
p76
(lp77
(F0.89
F0.1
F0.11
tp78
a(F0.22
F0.49
F0.72
tp79
a(F0.3
F0.69
F0.29
tp80
asS'Set2'
p81
(lp82
(F0.4
F0.76
F0.65
tp83
a(F0.99
F0.55
F0.38
tp84
a(F0.55
F0.63
F0.8
tp85
asS'Set3'
p86
(lp87
(F0.55
F0.83
F0.78
tp88
a(F1.0
F1.0
F0.7
tp89
a(F0.75
F0.73
F0.85
tp90
assS'sequential'
p91
(dp92
S'Reds'
p93
(lp94
(F1.0
F0.88
F0.82
tp95
a(F0.99
F0.57
F0.45
tp96
a(F0.87
F0.18
F0.15
tp97
asS'BuGn'
p98
(lp99
(F0.9
F0.96
F0.98
tp100
a(F0.6
F0.85
F0.79
tp101
a(F0.17
F0.64
F0.37
tp102
asS'RdPu'
p103
(lp104
(F0.99
F0.88
F0.87
tp105
a(F0.98
F0.62
F0.71
tp106
a(F0.77
F0.11
F0.54
tp107
asS'OrRd'
p108
(lp109
(F1.0
F0.91
F0.78
tp110
a(F0.99
F0.73
F0.52
tp111
a(F0.89
F0.29
F0.2
tp112
asS'PuBu'
p113
(lp114
(F0.93
F0.91
F0.95
tp115
a(F0.65
F0.74
F0.86
tp116
a(F0.17
F0.55
F0.75
tp117
asS'Greens'
p118
(lp119
(F0.9
F0.96
F0.88
tp120
a(F0.63
F0.85
F0.61
tp121
a(F0.19
F0.64
F0.33
tp122
asS'GnBu'
p123
(lp124
(F0.88
F0.95
F0.86
tp125
a(F0.66
F0.87
F0.71
tp126
a(F0.26
F0.64
F0.79
tp127
asS'BuPu'
p128
(lp129
(F0.88
F0.93
F0.96
tp130
a(F0.62
F0.74
F0.85
tp131
a(F0.53
F0.34
F0.65
tp132
asS'YlGnBu'
p133
(lp134
(F0.93
F0.97
F0.69
tp135
a(F0.5
F0.8
F0.73
tp136
a(F0.17
F0.5
F0.72
tp137
asS'Oranges'
p138
(lp139
(F1.0
F0.9
F0.81
tp140
a(F0.99
F0.68
F0.42
tp141
a(F0.9
F0.33
F0.05
tp142
asS'Greys'
p143
(lp144
(F0.94
F0.94
F0.94
tp145
a(F0.74
F0.74
F0.74
tp146
a(F0.39
F0.39
F0.39
tp147
asS'YlOrRd'
p148
(lp149
(F1.0
F0.93
F0.63
tp150
a(F1.0
F0.7
F0.3
tp151
a(F0.94
F0.23
F0.13
tp152
asS'YlOrBr'
p153
(lp154
(F1.0
F0.97
F0.74
tp155
a(F1.0
F0.77
F0.31
tp156
a(F0.85
F0.37
F0.05
tp157
asS'PuRd'
p158
(lp159
(F0.91
F0.88
F0.94
tp160
a(F0.79
F0.58
F0.78
tp161
a(F0.87
F0.11
F0.47
tp162
asS'Blues'
p163
(lp164
(F0.87
F0.92
F0.97
tp165
a(F0.62
F0.79
F0.88
tp166
a(F0.19
F0.51
F0.74
tp167
asS'PuBuGn'
p168
(lp169
(F0.93
F0.89
F0.94
tp170
a(F0.65
F0.74
F0.86
tp171
a(F0.11
F0.56
F0.6
tp172
asS'YlGn'
p173
(lp174
(F0.97
F0.99
F0.73
tp175
a(F0.68
F0.87
F0.56
tp176
a(F0.19
F0.64
F0.33
tp177
asS'Purples'
p178
(lp179
(F0.94
F0.93
F0.96
tp180
a(F0.74
F0.74
F0.86
tp181
a(F0.46
F0.42
F0.69
tp182
asssI4
(dp183
g2
(dp184
S'Spectral'
p185
(lp186
(F0.84
F0.1
F0.11
tp187
a(F0.99
F0.68
F0.38
tp188
a(F0.67
F0.87
F0.64
tp189
a(F0.17
F0.51
F0.73
tp190
asS'RdYlGn'
p191
(lp192
(F0.84
F0.1
F0.11
tp193
a(F0.99
F0.68
F0.38
tp194
a(F0.65
F0.85
F0.42
tp195
a(F0.1
F0.59
F0.25
tp196
asS'PRGn'
p197
(lp198
(F0.48
F0.2
F0.58
tp199
a(F0.76
F0.65
F0.81
tp200
a(F0.65
F0.86
F0.63
tp201
a(F0.0
F0.53
F0.22
tp202
asS'RdBu'
p203
(lp204
(F0.79
F0.0
F0.13
tp205
a(F0.96
F0.65
F0.51
tp206
a(F0.57
F0.77
F0.87
tp207
a(F0.02
F0.44
F0.69
tp208
asS'RdGy'
p209
(lp210
(F0.79
F0.0
F0.13
tp211
a(F0.96
F0.65
F0.51
tp212
a(F0.73
F0.73
F0.73
tp213
a(F0.25
F0.25
F0.25
tp214
asS'RdYlBu'
p215
(lp216
(F0.84
F0.1
F0.11
tp217
a(F0.99
F0.68
F0.38
tp218
a(F0.67
F0.85
F0.91
tp219
a(F0.17
F0.48
F0.71
tp220
asS'PiYG'
p221
(lp222
(F0.82
F0.11
F0.55
tp223
a(F0.95
F0.71
F0.85
tp224
a(F0.72
F0.88
F0.53
tp225
a(F0.3
F0.67
F0.15
tp226
asS'PuOr'
p227
(lp228
(F0.9
F0.38
F0.0
tp229
a(F0.99
F0.72
F0.39
tp230
a(F0.7
F0.67
F0.82
tp231
a(F0.37
F0.24
F0.6
tp232
asS'BrBG'
p233
(lp234
(F0.65
F0.38
F0.1
tp235
a(F0.87
F0.76
F0.49
tp236
a(F0.5
F0.8
F0.76
tp237
a(F0.0
F0.52
F0.44
tp238
assg49
(dp239
S'Pastel2'
p240
(lp241
(F0.7
F0.89
F0.8
tp242
a(F0.99
F0.8
F0.67
tp243
a(F0.8
F0.84
F0.91
tp244
a(F0.96
F0.79
F0.89
tp245
asS'Pastel1'
p246
(lp247
(F0.98
F0.71
F0.68
tp248
a(F0.7
F0.8
F0.89
tp249
a(F0.8
F0.92
F0.77
tp250
a(F0.87
F0.8
F0.89
tp251
asS'Dark2'
p252
(lp253
(F0.11
F0.62
F0.47
tp254
a(F0.85
F0.37
F0.01
tp255
a(F0.46
F0.44
F0.7
tp256
a(F0.91
F0.16
F0.54
tp257
asS'Accent'
p258
(lp259
(F0.5
F0.79
F0.5
tp260
a(F0.75
F0.68
F0.83
tp261
a(F0.99
F0.75
F0.53
tp262
a(F1.0
F1.0
F0.6
tp263
asS'Paired'
p264
(lp265
(F0.65
F0.81
F0.89
tp266
a(F0.12
F0.47
F0.71
tp267
a(F0.7
F0.87
F0.54
tp268
a(F0.2
F0.63
F0.17
tp269
asS'Set1'
p270
(lp271
(F0.89
F0.1
F0.11
tp272
a(F0.22
F0.49
F0.72
tp273
a(F0.3
F0.69
F0.29
tp274
a(F0.6
F0.31
F0.64
tp275
asS'Set2'
p276
(lp277
(F0.4
F0.76
F0.65
tp278
a(F0.99
F0.55
F0.38
tp279
a(F0.55
F0.63
F0.8
tp280
a(F0.91
F0.54
F0.76
tp281
asS'Set3'
p282
(lp283
(F0.55
F0.83
F0.78
tp284
a(F1.0
F1.0
F0.7
tp285
a(F0.75
F0.73
F0.85
tp286
a(F0.98
F0.5
F0.45
tp287
assg91
(dp288
S'Reds'
p289
(lp290
(F1.0
F0.9
F0.85
tp291
a(F0.99
F0.68
F0.57
tp292
a(F0.98
F0.42
F0.29
tp293
a(F0.8
F0.09
F0.11
tp294
asS'BuGn'
p295
(lp296
(F0.93
F0.97
F0.98
tp297
a(F0.7
F0.89
F0.89
tp298
a(F0.4
F0.76
F0.64
tp299
a(F0.14
F0.55
F0.27
tp300
asS'RdPu'
p301
(lp302
(F1.0
F0.92
F0.89
tp303
a(F0.98
F0.71
F0.73
tp304
a(F0.97
F0.41
F0.63
tp305
a(F0.68
F0.0
F0.49
tp306
asS'OrRd'
p307
(lp308
(F1.0
F0.94
F0.85
tp309
a(F0.99
F0.8
F0.54
tp310
a(F0.99
F0.55
F0.35
tp311
a(F0.84
F0.19
F0.12
tp312
asS'PuBu'
p313
(lp314
(F0.95
F0.93
F0.96
tp315
a(F0.74
F0.79
F0.88
tp316
a(F0.45
F0.66
F0.81
tp317
a(F0.02
F0.44
F0.69
tp318
asS'Greens'
p319
(lp320
(F0.93
F0.97
F0.91
tp321
a(F0.73
F0.89
F0.7
tp322
a(F0.45
F0.77
F0.46
tp323
a(F0.14
F0.55
F0.27
tp324
asS'GnBu'
p325
(lp326
(F0.94
F0.98
F0.91
tp327
a(F0.73
F0.89
F0.74
tp328
a(F0.48
F0.8
F0.77
tp329
a(F0.17
F0.55
F0.75
tp330
asS'BuPu'
p331
(lp332
(F0.93
F0.97
F0.98
tp333
a(F0.7
F0.8
F0.89
tp334
a(F0.55
F0.59
F0.78
tp335
a(F0.53
F0.25
F0.62
tp336
asS'YlGnBu'
p337
(lp338
(F1.0
F1.0
F0.8
tp339
a(F0.63
F0.85
F0.71
tp340
a(F0.25
F0.71
F0.77
tp341
a(F0.13
F0.37
F0.66
tp342
asS'Oranges'
p343
(lp344
(F1.0
F0.93
F0.87
tp345
a(F0.99
F0.75
F0.52
tp346
a(F0.99
F0.55
F0.24
tp347
a(F0.85
F0.28
F0.0
tp348
asS'Greys'
p349
(lp350
(F0.97
F0.97
F0.97
tp351
a(F0.8
F0.8
F0.8
tp352
a(F0.59
F0.59
F0.59
tp353
a(F0.32
F0.32
F0.32
tp354
asS'YlOrRd'
p355
(lp356
(F1.0
F1.0
F0.7
tp357
a(F1.0
F0.8
F0.36
tp358
a(F0.99
F0.55
F0.24
tp359
a(F0.89
F0.1
F0.11
tp360
asS'YlOrBr'
p361
(lp362
(F1.0
F1.0
F0.83
tp363
a(F1.0
F0.85
F0.56
tp364
a(F1.0
F0.6
F0.16
tp365
a(F0.8
F0.3
F0.01
tp366
asS'PuRd'
p367
(lp368
(F0.95
F0.93
F0.96
tp369
a(F0.84
F0.71
F0.85
tp370
a(F0.87
F0.4
F0.69
tp371
a(F0.81
F0.07
F0.34
tp372
asS'Blues'
p373
(lp374
(F0.94
F0.95
F1.0
tp375
a(F0.74
F0.84
F0.91
tp376
a(F0.42
F0.68
F0.84
tp377
a(F0.13
F0.44
F0.71
tp378
asS'PuBuGn'
p379
(lp380
(F0.96
F0.94
F0.97
tp381
a(F0.74
F0.79
F0.88
tp382
a(F0.4
F0.66
F0.81
tp383
a(F0.01
F0.51
F0.54
tp384
asS'YlGn'
p385
(lp386
(F1.0
F1.0
F0.8
tp387
a(F0.76
F0.9
F0.6
tp388
a(F0.47
F0.78
F0.47
tp389
a(F0.14
F0.52
F0.26
tp390
asS'Purples'
p391
(lp392
(F0.95
F0.94
F0.97
tp393
a(F0.8
F0.79
F0.89
tp394
a(F0.62
F0.6
F0.78
tp395
a(F0.42
F0.32
F0.64
tp396
asssI5
(dp397
g2
(dp398
S'Spectral'
p399
(lp400
(F0.84
F0.1
F0.11
tp401
a(F0.99
F0.68
F0.38
tp402
a(F1.0
F1.0
F0.75
tp403
a(F0.67
F0.87
F0.64
tp404
a(F0.17
F0.51
F0.73
tp405
asS'RdYlGn'
p406
(lp407
(F0.84
F0.1
F0.11
tp408
a(F0.99
F0.68
F0.38
tp409
a(F1.0
F1.0
F0.75
tp410
a(F0.65
F0.85
F0.42
tp411
a(F0.1
F0.59
F0.25
tp412
asS'PRGn'
p413
(lp414
(F0.48
F0.2
F0.58
tp415
a(F0.76
F0.65
F0.81
tp416
a(F0.97
F0.97
F0.97
tp417
a(F0.65
F0.86
F0.63
tp418
a(F0.0
F0.53
F0.22
tp419
asS'RdBu'
p420
(lp421
(F0.79
F0.0
F0.13
tp422
a(F0.96
F0.65
F0.51
tp423
a(F0.97
F0.97
F0.97
tp424
a(F0.57
F0.77
F0.87
tp425
a(F0.02
F0.44
F0.69
tp426
asS'RdGy'
p427
(lp428
(F0.79
F0.0
F0.13
tp429
a(F0.96
F0.65
F0.51
tp430
a(F1.0
F1.0
F1.0
tp431
a(F0.73
F0.73
F0.73
tp432
a(F0.25
F0.25
F0.25
tp433
asS'RdYlBu'
p434
(lp435
(F0.84
F0.1
F0.11
tp436
a(F0.99
F0.68
F0.38
tp437
a(F1.0
F1.0
F0.75
tp438
a(F0.67
F0.85
F0.91
tp439
a(F0.17
F0.48
F0.71
tp440
asS'PiYG'
p441
(lp442
(F0.82
F0.11
F0.55
tp443
a(F0.95
F0.71
F0.85
tp444
a(F0.97
F0.97
F0.97
tp445
a(F0.72
F0.88
F0.53
tp446
a(F0.3
F0.67
F0.15
tp447
asS'PuOr'
p448
(lp449
(F0.9
F0.38
F0.0
tp450
a(F0.99
F0.72
F0.39
tp451
a(F0.97
F0.97
F0.97
tp452
a(F0.7
F0.67
F0.82
tp453
a(F0.37
F0.24
F0.6
tp454
asS'BrBG'
p455
(lp456
(F0.65
F0.38
F0.1
tp457
a(F0.87
F0.76
F0.49
tp458
a(F0.96
F0.96
F0.96
tp459
a(F0.5
F0.8
F0.76
tp460
a(F0.0
F0.52
F0.44
tp461
assg49
(dp462
S'Pastel2'
p463
(lp464
(F0.7
F0.89
F0.8
tp465
a(F0.99
F0.8
F0.67
tp466
a(F0.8
F0.84
F0.91
tp467
a(F0.96
F0.79
F0.89
tp468
a(F0.9
F0.96
F0.79
tp469
asS'Pastel1'
p470
(lp471
(F0.98
F0.71
F0.68
tp472
a(F0.7
F0.8
F0.89
tp473
a(F0.8
F0.92
F0.77
tp474
a(F0.87
F0.8
F0.89
tp475
a(F1.0
F0.85
F0.65
tp476
asS'Dark2'
p477
(lp478
(F0.11
F0.62
F0.47
tp479
a(F0.85
F0.37
F0.01
tp480
a(F0.46
F0.44
F0.7
tp481
a(F0.91
F0.16
F0.54
tp482
a(F0.4
F0.65
F0.12
tp483
asS'Accent'
p484
(lp485
(F0.5
F0.79
F0.5
tp486
a(F0.75
F0.68
F0.83
tp487
a(F0.99
F0.75
F0.53
tp488
a(F1.0
F1.0
F0.6
tp489
a(F0.22
F0.42
F0.69
tp490
asS'Paired'
p491
(lp492
(F0.65
F0.81
F0.89
tp493
a(F0.12
F0.47
F0.71
tp494
a(F0.7
F0.87
F0.54
tp495
a(F0.2
F0.63
F0.17
tp496
a(F0.98
F0.6
F0.6
tp497
asS'Set1'
p498
(lp499
(F0.89
F0.1
F0.11
tp500
a(F0.22
F0.49
F0.72
tp501
a(F0.3
F0.69
F0.29
tp502
a(F0.6
F0.31
F0.64
tp503
a(F1.0
F0.5
F0.0
tp504
asS'Set2'
p505
(lp506
(F0.4
F0.76
F0.65
tp507
a(F0.99
F0.55
F0.38
tp508
a(F0.55
F0.63
F0.8
tp509
a(F0.91
F0.54
F0.76
tp510
a(F0.65
F0.85
F0.33
tp511
asS'Set3'
p512
(lp513
(F0.55
F0.83
F0.78
tp514
a(F1.0
F1.0
F0.7
tp515
a(F0.75
F0.73
F0.85
tp516
a(F0.98
F0.5
F0.45
tp517
a(F0.5
F0.69
F0.83
tp518
assg91
(dp519
S'Reds'
p520
(lp521
(F1.0
F0.9
F0.85
tp522
a(F0.99
F0.68
F0.57
tp523
a(F0.98
F0.42
F0.29
tp524
a(F0.87
F0.18
F0.15
tp525
a(F0.65
F0.06
F0.08
tp526
asS'BuGn'
p527
(lp528
(F0.93
F0.97
F0.98
tp529
a(F0.7
F0.89
F0.89
tp530
a(F0.4
F0.76
F0.64
tp531
a(F0.17
F0.64
F0.37
tp532
a(F0.0
F0.43
F0.17
tp533
asS'RdPu'
p534
(lp535
(F1.0
F0.92
F0.89
tp536
a(F0.98
F0.71
F0.73
tp537
a(F0.97
F0.41
F0.63
tp538
a(F0.77
F0.11
F0.54
tp539
a(F0.48
F0.0
F0.47
tp540
asS'OrRd'
p541
(lp542
(F1.0
F0.94
F0.85
tp543
a(F0.99
F0.8
F0.54
tp544
a(F0.99
F0.55
F0.35
tp545
a(F0.89
F0.29
F0.2
tp546
a(F0.7
F0.0
F0.0
tp547
asS'PuBu'
p548
(lp549
(F0.95
F0.93
F0.96
tp550
a(F0.74
F0.79
F0.88
tp551
a(F0.45
F0.66
F0.81
tp552
a(F0.17
F0.55
F0.75
tp553
a(F0.02
F0.35
F0.55
tp554
asS'Greens'
p555
(lp556
(F0.93
F0.97
F0.91
tp557
a(F0.73
F0.89
F0.7
tp558
a(F0.45
F0.77
F0.46
tp559
a(F0.19
F0.64
F0.33
tp560
a(F0.0
F0.43
F0.17
tp561
asS'GnBu'
p562
(lp563
(F0.94
F0.98
F0.91
tp564
a(F0.73
F0.89
F0.74
tp565
a(F0.48
F0.8
F0.77
tp566
a(F0.26
F0.64
F0.79
tp567
a(F0.03
F0.41
F0.67
tp568
asS'BuPu'
p569
(lp570
(F0.93
F0.97
F0.98
tp571
a(F0.7
F0.8
F0.89
tp572
a(F0.55
F0.59
F0.78
tp573
a(F0.53
F0.34
F0.65
tp574
a(F0.51
F0.06
F0.49
tp575
asS'YlGnBu'
p576
(lp577
(F1.0
F1.0
F0.8
tp578
a(F0.63
F0.85
F0.71
tp579
a(F0.25
F0.71
F0.77
tp580
a(F0.17
F0.5
F0.72
tp581
a(F0.15
F0.2
F0.58
tp582
asS'Oranges'
p583
(lp584
(F1.0
F0.93
F0.87
tp585
a(F0.99
F0.75
F0.52
tp586
a(F0.99
F0.55
F0.24
tp587
a(F0.9
F0.33
F0.05
tp588
a(F0.65
F0.21
F0.01
tp589
asS'Greys'
p590
(lp591
(F0.97
F0.97
F0.97
tp592
a(F0.8
F0.8
F0.8
tp593
a(F0.59
F0.59
F0.59
tp594
a(F0.39
F0.39
F0.39
tp595
a(F0.15
F0.15
F0.15
tp596
asS'YlOrRd'
p597
(lp598
(F1.0
F1.0
F0.7
tp599
a(F1.0
F0.8
F0.36
tp600
a(F0.99
F0.55
F0.24
tp601
a(F0.94
F0.23
F0.13
tp602
a(F0.74
F0.0
F0.15
tp603
asS'YlOrBr'
p604
(lp605
(F1.0
F1.0
F0.83
tp606
a(F1.0
F0.85
F0.56
tp607
a(F1.0
F0.6
F0.16
tp608
a(F0.85
F0.37
F0.05
tp609
a(F0.6
F0.2
F0.02
tp610
asS'PuRd'
p611
(lp612
(F0.95
F0.93
F0.96
tp613
a(F0.84
F0.71
F0.85
tp614
a(F0.87
F0.4
F0.69
tp615
a(F0.87
F0.11
F0.47
tp616
a(F0.6
F0.0
F0.26
tp617
asS'Blues'
p618
(lp619
(F0.94
F0.95
F1.0
tp620
a(F0.74
F0.84
F0.91
tp621
a(F0.42
F0.68
F0.84
tp622
a(F0.19
F0.51
F0.74
tp623
a(F0.03
F0.32
F0.61
tp624
asS'PuBuGn'
p625
(lp626
(F0.96
F0.94
F0.97
tp627
a(F0.74
F0.79
F0.88
tp628
a(F0.4
F0.66
F0.81
tp629
a(F0.11
F0.56
F0.6
tp630
a(F0.0
F0.42
F0.35
tp631
asS'YlGn'
p632
(lp633
(F1.0
F1.0
F0.8
tp634
a(F0.76
F0.9
F0.6
tp635
a(F0.47
F0.78
F0.47
tp636
a(F0.19
F0.64
F0.33
tp637
a(F0.0
F0.41
F0.22
tp638
asS'Purples'
p639
(lp640
(F0.95
F0.94
F0.97
tp641
a(F0.8
F0.79
F0.89
tp642
a(F0.62
F0.6
F0.78
tp643
a(F0.46
F0.42
F0.69
tp644
a(F0.33
F0.15
F0.56
tp645
asssI6
(dp646
g2
(dp647
S'Spectral'
p648
(lp649
(F0.84
F0.24
F0.31
tp650
a(F0.99
F0.55
F0.35
tp651
a(F1.0
F0.88
F0.55
tp652
a(F0.9
F0.96
F0.6
tp653
a(F0.6
F0.84
F0.58
tp654
a(F0.2
F0.53
F0.74
tp655
asS'RdYlGn'
p656
(lp657
(F0.84
F0.19
F0.15
tp658
a(F0.99
F0.55
F0.35
tp659
a(F1.0
F0.88
F0.55
tp660
a(F0.85
F0.94
F0.55
tp661
a(F0.57
F0.81
F0.38
tp662
a(F0.1
F0.6
F0.31
tp663
asS'PRGn'
p664
(lp665
(F0.46
F0.16
F0.51
tp666
a(F0.69
F0.55
F0.76
tp667
a(F0.91
F0.83
F0.91
tp668
a(F0.85
F0.94
F0.83
tp669
a(F0.5
F0.75
F0.48
tp670
a(F0.11
F0.47
F0.22
tp671
asS'RdBu'
p672
(lp673
(F0.7
F0.09
F0.17
tp674
a(F0.94
F0.54
F0.38
tp675
a(F0.99
F0.86
F0.78
tp676
a(F0.82
F0.9
F0.94
tp677
a(F0.4
F0.66
F0.81
tp678
a(F0.13
F0.4
F0.67
tp679
asS'RdGy'
p680
(lp681
(F0.7
F0.09
F0.17
tp682
a(F0.94
F0.54
F0.38
tp683
a(F0.99
F0.86
F0.78
tp684
a(F0.88
F0.88
F0.88
tp685
a(F0.6
F0.6
F0.6
tp686
a(F0.3
F0.3
F0.3
tp687
asS'RdYlBu'
p688
(lp689
(F0.84
F0.19
F0.15
tp690
a(F0.99
F0.55
F0.35
tp691
a(F1.0
F0.88
F0.56
tp692
a(F0.88
F0.95
F0.97
tp693
a(F0.57
F0.75
F0.86
tp694
a(F0.27
F0.46
F0.71
tp695
asS'PiYG'
p696
(lp697
(F0.77
F0.11
F0.49
tp698
a(F0.91
F0.64
F0.79
tp699
a(F0.99
F0.88
F0.94
tp700
a(F0.9
F0.96
F0.82
tp701
a(F0.63
F0.84
F0.42
tp702
a(F0.3
F0.57
F0.13
tp703
asS'PuOr'
p704
(lp705
(F0.7
F0.35
F0.02
tp706
a(F0.95
F0.64
F0.25
tp707
a(F1.0
F0.88
F0.71
tp708
a(F0.85
F0.85
F0.92
tp709
a(F0.6
F0.56
F0.76
tp710
a(F0.33
F0.15
F0.53
tp711
asS'BrBG'
p712
(lp713
(F0.55
F0.32
F0.04
tp714
a(F0.85
F0.7
F0.4
tp715
a(F0.96
F0.91
F0.76
tp716
a(F0.78
F0.92
F0.9
tp717
a(F0.35
F0.71
F0.67
tp718
a(F0.0
F0.4
F0.37
tp719
assg49
(dp720
S'Pastel2'
p721
(lp722
(F0.7
F0.89
F0.8
tp723
a(F0.99
F0.8
F0.67
tp724
a(F0.8
F0.84
F0.91
tp725
a(F0.96
F0.79
F0.89
tp726
a(F0.9
F0.96
F0.79
tp727
a(F1.0
F0.95
F0.68
tp728
asS'Pastel1'
p729
(lp730
(F0.98
F0.71
F0.68
tp731
a(F0.7
F0.8
F0.89
tp732
a(F0.8
F0.92
F0.77
tp733
a(F0.87
F0.8
F0.89
tp734
a(F1.0
F0.85
F0.65
tp735
a(F1.0
F1.0
F0.8
tp736
asS'Dark2'
p737
(lp738
(F0.11
F0.62
F0.47
tp739
a(F0.85
F0.37
F0.01
tp740
a(F0.46
F0.44
F0.7
tp741
a(F0.91
F0.16
F0.54
tp742
a(F0.4
F0.65
F0.12
tp743
a(F0.9
F0.67
F0.01
tp744
asS'Accent'
p745
(lp746
(F0.5
F0.79
F0.5
tp747
a(F0.75
F0.68
F0.83
tp748
a(F0.99
F0.75
F0.53
tp749
a(F1.0
F1.0
F0.6
tp750
a(F0.22
F0.42
F0.69
tp751
a(F0.94
F0.01
F0.5
tp752
asS'Paired'
p753
(lp754
(F0.65
F0.81
F0.89
tp755
a(F0.12
F0.47
F0.71
tp756
a(F0.7
F0.87
F0.54
tp757
a(F0.2
F0.63
F0.17
tp758
a(F0.98
F0.6
F0.6
tp759
a(F0.89
F0.1
F0.11
tp760
asS'Set1'
p761
(lp762
(F0.89
F0.1
F0.11
tp763
a(F0.22
F0.49
F0.72
tp764
a(F0.3
F0.69
F0.29
tp765
a(F0.6
F0.31
F0.64
tp766
a(F1.0
F0.5
F0.0
tp767
a(F1.0
F1.0
F0.2
tp768
asS'Set2'
p769
(lp770
(F0.4
F0.76
F0.65
tp771
a(F0.99
F0.55
F0.38
tp772
a(F0.55
F0.63
F0.8
tp773
a(F0.91
F0.54
F0.76
tp774
a(F0.65
F0.85
F0.33
tp775
a(F1.0
F0.85
F0.18
tp776
asS'Set3'
p777
(lp778
(F0.55
F0.83
F0.78
tp779
a(F1.0
F1.0
F0.7
tp780
a(F0.75
F0.73
F0.85
tp781
a(F0.98
F0.5
F0.45
tp782
a(F0.5
F0.69
F0.83
tp783
a(F0.99
F0.71
F0.38
tp784
assg91
(dp785
S'Reds'
p786
(lp787
(F1.0
F0.9
F0.85
tp788
a(F0.99
F0.73
F0.63
tp789
a(F0.99
F0.57
F0.45
tp790
a(F0.98
F0.42
F0.29
tp791
a(F0.87
F0.18
F0.15
tp792
a(F0.65
F0.06
F0.08
tp793
asS'BuGn'
p794
(lp795
(F0.93
F0.97
F0.98
tp796
a(F0.8
F0.93
F0.9
tp797
a(F0.6
F0.85
F0.79
tp798
a(F0.4
F0.76
F0.64
tp799
a(F0.17
F0.64
F0.37
tp800
a(F0.0
F0.43
F0.17
tp801
asS'RdPu'
p802
(lp803
(F1.0
F0.92
F0.89
tp804
a(F0.99
F0.77
F0.75
tp805
a(F0.98
F0.62
F0.71
tp806
a(F0.97
F0.41
F0.63
tp807
a(F0.77
F0.11
F0.54
tp808
a(F0.48
F0.0
F0.47
tp809
asS'OrRd'
p810
(lp811
(F1.0
F0.94
F0.85
tp812
a(F0.99
F0.83
F0.62
tp813
a(F0.99
F0.73
F0.52
tp814
a(F0.99
F0.55
F0.35
tp815
a(F0.89
F0.29
F0.2
tp816
a(F0.7
F0.0
F0.0
tp817
asS'PuBu'
p818
(lp819
(F0.95
F0.93
F0.96
tp820
a(F0.82
F0.82
F0.9
tp821
a(F0.65
F0.74
F0.86
tp822
a(F0.45
F0.66
F0.81
tp823
a(F0.17
F0.55
F0.75
tp824
a(F0.02
F0.35
F0.55
tp825
asS'Greens'
p826
(lp827
(F0.93
F0.97
F0.91
tp828
a(F0.78
F0.91
F0.75
tp829
a(F0.63
F0.85
F0.61
tp830
a(F0.45
F0.77
F0.46
tp831
a(F0.19
F0.64
F0.33
tp832
a(F0.0
F0.43
F0.17
tp833
asS'GnBu'
p834
(lp835
(F0.94
F0.98
F0.91
tp836
a(F0.8
F0.92
F0.77
tp837
a(F0.66
F0.87
F0.71
tp838
a(F0.48
F0.8
F0.77
tp839
a(F0.26
F0.64
F0.79
tp840
a(F0.03
F0.41
F0.67
tp841
asS'BuPu'
p842
(lp843
(F0.93
F0.97
F0.98
tp844
a(F0.75
F0.83
F0.9
tp845
a(F0.62
F0.74
F0.85
tp846
a(F0.55
F0.59
F0.78
tp847
a(F0.53
F0.34
F0.65
tp848
a(F0.51
F0.06
F0.49
tp849
asS'YlGnBu'
p850
(lp851
(F1.0
F1.0
F0.8
tp852
a(F0.78
F0.91
F0.71
tp853
a(F0.5
F0.8
F0.73
tp854
a(F0.25
F0.71
F0.77
tp855
a(F0.17
F0.5
F0.72
tp856
a(F0.15
F0.2
F0.58
tp857
asS'Oranges'
p858
(lp859
(F1.0
F0.93
F0.87
tp860
a(F0.99
F0.82
F0.64
tp861
a(F0.99
F0.68
F0.42
tp862
a(F0.99
F0.55
F0.24
tp863
a(F0.9
F0.33
F0.05
tp864
a(F0.65
F0.21
F0.01
tp865
asS'Greys'
p866
(lp867
(F0.97
F0.97
F0.97
tp868
a(F0.85
F0.85
F0.85
tp869
a(F0.74
F0.74
F0.74
tp870
a(F0.59
F0.59
F0.59
tp871
a(F0.39
F0.39
F0.39
tp872
a(F0.15
F0.15
F0.15
tp873
asS'YlOrRd'
p874
(lp875
(F1.0
F1.0
F0.7
tp876
a(F1.0
F0.85
F0.46
tp877
a(F1.0
F0.7
F0.3
tp878
a(F0.99
F0.55
F0.24
tp879
a(F0.94
F0.23
F0.13
tp880
a(F0.74
F0.0
F0.15
tp881
asS'YlOrBr'
p882
(lp883
(F1.0
F1.0
F0.83
tp884
a(F1.0
F0.89
F0.57
tp885
a(F1.0
F0.77
F0.31
tp886
a(F1.0
F0.6
F0.16
tp887
a(F0.85
F0.37
F0.05
tp888
a(F0.6
F0.2
F0.02
tp889
asS'PuRd'
p890
(lp891
(F0.95
F0.93
F0.96
tp892
a(F0.83
F0.73
F0.85
tp893
a(F0.79
F0.58
F0.78
tp894
a(F0.87
F0.4
F0.69
tp895
a(F0.87
F0.11
F0.47
tp896
a(F0.6
F0.0
F0.26
tp897
asS'Blues'
p898
(lp899
(F0.94
F0.95
F1.0
tp900
a(F0.78
F0.86
F0.94
tp901
a(F0.62
F0.79
F0.88
tp902
a(F0.42
F0.68
F0.84
tp903
a(F0.19
F0.51
F0.74
tp904
a(F0.03
F0.32
F0.61
tp905
asS'PuBuGn'
p906
(lp907
(F0.96
F0.94
F0.97
tp908
a(F0.82
F0.82
F0.9
tp909
a(F0.65
F0.74
F0.86
tp910
a(F0.4
F0.66
F0.81
tp911
a(F0.11
F0.56
F0.6
tp912
a(F0.0
F0.42
F0.35
tp913
asS'YlGn'
p914
(lp915
(F1.0
F1.0
F0.8
tp916
a(F0.85
F0.94
F0.64
tp917
a(F0.68
F0.87
F0.56
tp918
a(F0.47
F0.78
F0.47
tp919
a(F0.19
F0.64
F0.33
tp920
a(F0.0
F0.41
F0.22
tp921
asS'Purples'
p922
(lp923
(F0.95
F0.94
F0.97
tp924
a(F0.85
F0.85
F0.92
tp925
a(F0.74
F0.74
F0.86
tp926
a(F0.62
F0.6
F0.78
tp927
a(F0.46
F0.42
F0.69
tp928
a(F0.33
F0.15
F0.56
tp929
asssI7
(dp930
g2
(dp931
S'Spectral'
p932
(lp933
(F0.84
F0.24
F0.31
tp934
a(F0.99
F0.55
F0.35
tp935
a(F1.0
F0.88
F0.55
tp936
a(F1.0
F1.0
F0.75
tp937
a(F0.9
F0.96
F0.6
tp938
a(F0.6
F0.84
F0.58
tp939
a(F0.2
F0.53
F0.74
tp940
asS'RdYlGn'
p941
(lp942
(F0.84
F0.19
F0.15
tp943
a(F0.99
F0.55
F0.35
tp944
a(F1.0
F0.88
F0.55
tp945
a(F1.0
F1.0
F0.75
tp946
a(F0.85
F0.94
F0.55
tp947
a(F0.57
F0.81
F0.38
tp948
a(F0.1
F0.6
F0.31
tp949
asS'PRGn'
p950
(lp951
(F0.46
F0.16
F0.51
tp952
a(F0.69
F0.55
F0.76
tp953
a(F0.91
F0.83
F0.91
tp954
a(F0.97
F0.97
F0.97
tp955
a(F0.85
F0.94
F0.83
tp956
a(F0.5
F0.75
F0.48
tp957
a(F0.11
F0.47
F0.22
tp958
asS'RdBu'
p959
(lp960
(F0.7
F0.09
F0.17
tp961
a(F0.94
F0.54
F0.38
tp962
a(F0.99
F0.86
F0.78
tp963
a(F0.97
F0.97
F0.97
tp964
a(F0.82
F0.9
F0.94
tp965
a(F0.4
F0.66
F0.81
tp966
a(F0.13
F0.4
F0.67
tp967
asS'RdGy'
p968
(lp969
(F0.7
F0.09
F0.17
tp970
a(F0.94
F0.54
F0.38
tp971
a(F0.99
F0.86
F0.78
tp972
a(F1.0
F1.0
F1.0
tp973
a(F0.88
F0.88
F0.88
tp974
a(F0.6
F0.6
F0.6
tp975
a(F0.3
F0.3
F0.3
tp976
asS'RdYlBu'
p977
(lp978
(F0.84
F0.19
F0.15
tp979
a(F0.99
F0.55
F0.35
tp980
a(F1.0
F0.88
F0.56
tp981
a(F1.0
F1.0
F0.75
tp982
a(F0.88
F0.95
F0.97
tp983
a(F0.57
F0.75
F0.86
tp984
a(F0.27
F0.46
F0.71
tp985
asS'PiYG'
p986
(lp987
(F0.77
F0.11
F0.49
tp988
a(F0.91
F0.64
F0.79
tp989
a(F0.99
F0.88
F0.94
tp990
a(F0.97
F0.97
F0.97
tp991
a(F0.9
F0.96
F0.82
tp992
a(F0.63
F0.84
F0.42
tp993
a(F0.3
F0.57
F0.13
tp994
asS'PuOr'
p995
(lp996
(F0.7
F0.35
F0.02
tp997
a(F0.95
F0.64
F0.25
tp998
a(F1.0
F0.88
F0.71
tp999
a(F0.97
F0.97
F0.97
tp1000
a(F0.85
F0.85
F0.92
tp1001
a(F0.6
F0.56
F0.76
tp1002
a(F0.33
F0.15
F0.53
tp1003
asS'BrBG'
p1004
(lp1005
(F0.55
F0.32
F0.04
tp1006
a(F0.85
F0.7
F0.4
tp1007
a(F0.96
F0.91
F0.76
tp1008
a(F0.96
F0.96
F0.96
tp1009
a(F0.78
F0.92
F0.9
tp1010
a(F0.35
F0.71
F0.67
tp1011
a(F0.0
F0.4
F0.37
tp1012
assg49
(dp1013
S'Pastel2'
p1014
(lp1015
(F0.7
F0.89
F0.8
tp1016
a(F0.99
F0.8
F0.67
tp1017
a(F0.8
F0.84
F0.91
tp1018
a(F0.96
F0.79
F0.89
tp1019
a(F0.9
F0.96
F0.79
tp1020
a(F1.0
F0.95
F0.68
tp1021
a(F0.95
F0.89
F0.8
tp1022
asS'Pastel1'
p1023
(lp1024
(F0.98
F0.71
F0.68
tp1025
a(F0.7
F0.8
F0.89
tp1026
a(F0.8
F0.92
F0.77
tp1027
a(F0.87
F0.8
F0.89
tp1028
a(F1.0
F0.85
F0.65
tp1029
a(F1.0
F1.0
F0.8
tp1030
a(F0.9
F0.85
F0.74
tp1031
asS'Dark2'
p1032
(lp1033
(F0.11
F0.62
F0.47
tp1034
a(F0.85
F0.37
F0.01
tp1035
a(F0.46
F0.44
F0.7
tp1036
a(F0.91
F0.16
F0.54
tp1037
a(F0.4
F0.65
F0.12
tp1038
a(F0.9
F0.67
F0.01
tp1039
a(F0.65
F0.46
F0.11
tp1040
asS'Accent'
p1041
(lp1042
(F0.5
F0.79
F0.5
tp1043
a(F0.75
F0.68
F0.83
tp1044
a(F0.99
F0.75
F0.53
tp1045
a(F1.0
F1.0
F0.6
tp1046
a(F0.22
F0.42
F0.69
tp1047
a(F0.94
F0.01
F0.5
tp1048
a(F0.75
F0.36
F0.09
tp1049
asS'Paired'
p1050
(lp1051
(F0.65
F0.81
F0.89
tp1052
a(F0.12
F0.47
F0.71
tp1053
a(F0.7
F0.87
F0.54
tp1054
a(F0.2
F0.63
F0.17
tp1055
a(F0.98
F0.6
F0.6
tp1056
a(F0.89
F0.1
F0.11
tp1057
a(F0.99
F0.75
F0.44
tp1058
asS'Set1'
p1059
(lp1060
(F0.89
F0.1
F0.11
tp1061
a(F0.22
F0.49
F0.72
tp1062
a(F0.3
F0.69
F0.29
tp1063
a(F0.6
F0.31
F0.64
tp1064
a(F1.0
F0.5
F0.0
tp1065
a(F1.0
F1.0
F0.2
tp1066
a(F0.65
F0.34
F0.16
tp1067
asS'Set2'
p1068
(lp1069
(F0.4
F0.76
F0.65
tp1070
a(F0.99
F0.55
F0.38
tp1071
a(F0.55
F0.63
F0.8
tp1072
a(F0.91
F0.54
F0.76
tp1073
a(F0.65
F0.85
F0.33
tp1074
a(F1.0
F0.85
F0.18
tp1075
a(F0.9
F0.77
F0.58
tp1076
asS'Set3'
p1077
(lp1078
(F0.55
F0.83
F0.78
tp1079
a(F1.0
F1.0
F0.7
tp1080
a(F0.75
F0.73
F0.85
tp1081
a(F0.98
F0.5
F0.45
tp1082
a(F0.5
F0.69
F0.83
tp1083
a(F0.99
F0.71
F0.38
tp1084
a(F0.7
F0.87
F0.41
tp1085
assg91
(dp1086
S'Reds'
p1087
(lp1088
(F1.0
F0.9
F0.85
tp1089
a(F0.99
F0.73
F0.63
tp1090
a(F0.99
F0.57
F0.45
tp1091
a(F0.98
F0.42
F0.29
tp1092
a(F0.94
F0.23
F0.17
tp1093
a(F0.8
F0.09
F0.11
tp1094
a(F0.6
F0.0
F0.05
tp1095
asS'BuGn'
p1096
(lp1097
(F0.93
F0.97
F0.98
tp1098
a(F0.8
F0.93
F0.9
tp1099
a(F0.6
F0.85
F0.79
tp1100
a(F0.4
F0.76
F0.64
tp1101
a(F0.25
F0.68
F0.46
tp1102
a(F0.14
F0.55
F0.27
tp1103
a(F0.0
F0.35
F0.14
tp1104
asS'RdPu'
p1105
(lp1106
(F1.0
F0.92
F0.89
tp1107
a(F0.99
F0.77
F0.75
tp1108
a(F0.98
F0.62
F0.71
tp1109
a(F0.97
F0.41
F0.63
tp1110
a(F0.87
F0.2
F0.59
tp1111
a(F0.68
F0.0
F0.49
tp1112
a(F0.48
F0.0
F0.47
tp1113
asS'OrRd'
p1114
(lp1115
(F1.0
F0.94
F0.85
tp1116
a(F0.99
F0.83
F0.62
tp1117
a(F0.99
F0.73
F0.52
tp1118
a(F0.99
F0.55
F0.35
tp1119
a(F0.94
F0.4
F0.28
tp1120
a(F0.84
F0.19
F0.12
tp1121
a(F0.6
F0.0
F0.0
tp1122
asS'PuBu'
p1123
(lp1124
(F0.95
F0.93
F0.96
tp1125
a(F0.82
F0.82
F0.9
tp1126
a(F0.65
F0.74
F0.86
tp1127
a(F0.45
F0.66
F0.81
tp1128
a(F0.21
F0.56
F0.75
tp1129
a(F0.02
F0.44
F0.69
tp1130
a(F0.01
F0.31
F0.48
tp1131
asS'Greens'
p1132
(lp1133
(F0.93
F0.97
F0.91
tp1134
a(F0.78
F0.91
F0.75
tp1135
a(F0.63
F0.85
F0.61
tp1136
a(F0.45
F0.77
F0.46
tp1137
a(F0.25
F0.67
F0.36
tp1138
a(F0.14
F0.55
F0.27
tp1139
a(F0.0
F0.35
F0.2
tp1140
asS'GnBu'
p1141
(lp1142
(F0.94
F0.98
F0.91
tp1143
a(F0.8
F0.92
F0.77
tp1144
a(F0.66
F0.87
F0.71
tp1145
a(F0.48
F0.8
F0.77
tp1146
a(F0.31
F0.7
F0.83
tp1147
a(F0.17
F0.55
F0.75
tp1148
a(F0.03
F0.35
F0.62
tp1149
asS'BuPu'
p1150
(lp1151
(F0.93
F0.97
F0.98
tp1152
a(F0.75
F0.83
F0.9
tp1153
a(F0.62
F0.74
F0.85
tp1154
a(F0.55
F0.59
F0.78
tp1155
a(F0.55
F0.42
F0.69
tp1156
a(F0.53
F0.25
F0.62
tp1157
a(F0.43
F0.0
F0.42
tp1158
asS'YlGnBu'
p1159
(lp1160
(F1.0
F1.0
F0.8
tp1161
a(F0.78
F0.91
F0.71
tp1162
a(F0.5
F0.8
F0.73
tp1163
a(F0.25
F0.71
F0.77
tp1164
a(F0.11
F0.57
F0.75
tp1165
a(F0.13
F0.37
F0.66
tp1166
a(F0.05
F0.17
F0.52
tp1167
asS'Oranges'
p1168
(lp1169
(F1.0
F0.93
F0.87
tp1170
a(F0.99
F0.82
F0.64
tp1171
a(F0.99
F0.68
F0.42
tp1172
a(F0.99
F0.55
F0.24
tp1173
a(F0.95
F0.41
F0.07
tp1174
a(F0.85
F0.28
F0.0
tp1175
a(F0.55
F0.18
F0.02
tp1176
asS'Greys'
p1177
(lp1178
(F0.97
F0.97
F0.97
tp1179
a(F0.85
F0.85
F0.85
tp1180
a(F0.74
F0.74
F0.74
tp1181
a(F0.59
F0.59
F0.59
tp1182
a(F0.45
F0.45
F0.45
tp1183
a(F0.32
F0.32
F0.32
tp1184
a(F0.15
F0.15
F0.15
tp1185
asS'YlOrRd'
p1186
(lp1187
(F1.0
F1.0
F0.7
tp1188
a(F1.0
F0.85
F0.46
tp1189
a(F1.0
F0.7
F0.3
tp1190
a(F0.99
F0.55
F0.24
tp1191
a(F0.99
F0.31
F0.16
tp1192
a(F0.89
F0.1
F0.11
tp1193
a(F0.69
F0.0
F0.15
tp1194
asS'YlOrBr'
p1195
(lp1196
(F1.0
F1.0
F0.83
tp1197
a(F1.0
F0.89
F0.57
tp1198
a(F1.0
F0.77
F0.31
tp1199
a(F1.0
F0.6
F0.16
tp1200
a(F0.93
F0.44
F0.08
tp1201
a(F0.8
F0.3
F0.01
tp1202
a(F0.55
F0.18
F0.02
tp1203
asS'PuRd'
p1204
(lp1205
(F0.95
F0.93
F0.96
tp1206
a(F0.83
F0.73
F0.85
tp1207
a(F0.79
F0.58
F0.78
tp1208
a(F0.87
F0.4
F0.69
tp1209
a(F0.91
F0.16
F0.54
tp1210
a(F0.81
F0.07
F0.34
tp1211
a(F0.57
F0.0
F0.25
tp1212
asS'Blues'
p1213
(lp1214
(F0.94
F0.95
F1.0
tp1215
a(F0.78
F0.86
F0.94
tp1216
a(F0.62
F0.79
F0.88
tp1217
a(F0.42
F0.68
F0.84
tp1218
a(F0.26
F0.57
F0.78
tp1219
a(F0.13
F0.44
F0.71
tp1220
a(F0.03
F0.27
F0.58
tp1221
asS'PuBuGn'
p1222
(lp1223
(F0.96
F0.94
F0.97
tp1224
a(F0.82
F0.82
F0.9
tp1225
a(F0.65
F0.74
F0.86
tp1226
a(F0.4
F0.66
F0.81
tp1227
a(F0.21
F0.56
F0.75
tp1228
a(F0.01
F0.51
F0.54
tp1229
a(F0.0
F0.39
F0.31
tp1230
asS'YlGn'
p1231
(lp1232
(F1.0
F1.0
F0.8
tp1233
a(F0.85
F0.94
F0.64
tp1234
a(F0.68
F0.87
F0.56
tp1235
a(F0.47
F0.78
F0.47
tp1236
a(F0.25
F0.67
F0.36
tp1237
a(F0.14
F0.52
F0.26
tp1238
a(F0.0
F0.35
F0.2
tp1239
asS'Purples'
p1240
(lp1241
(F0.95
F0.94
F0.97
tp1242
a(F0.85
F0.85
F0.92
tp1243
a(F0.74
F0.74
F0.86
tp1244
a(F0.62
F0.6
F0.78
tp1245
a(F0.5
F0.49
F0.73
tp1246
a(F0.42
F0.32
F0.64
tp1247
a(F0.29
F0.08
F0.53
tp1248
asssI8
(dp1249
g2
(dp1250
S'Spectral'
p1251
(lp1252
(F0.84
F0.24
F0.31
tp1253
a(F0.96
F0.43
F0.26
tp1254
a(F0.99
F0.68
F0.38
tp1255
a(F1.0
F0.88
F0.55
tp1256
a(F0.9
F0.96
F0.6
tp1257
a(F0.67
F0.87
F0.64
tp1258
a(F0.4
F0.76
F0.65
tp1259
a(F0.2
F0.53
F0.74
tp1260
asS'RdYlGn'
p1261
(lp1262
(F0.84
F0.19
F0.15
tp1263
a(F0.96
F0.43
F0.26
tp1264
a(F0.99
F0.68
F0.38
tp1265
a(F1.0
F0.88
F0.55
tp1266
a(F0.85
F0.94
F0.55
tp1267
a(F0.65
F0.85
F0.42
tp1268
a(F0.4
F0.74
F0.39
tp1269
a(F0.1
F0.6
F0.31
tp1270
asS'PRGn'
p1271
(lp1272
(F0.46
F0.16
F0.51
tp1273
a(F0.6
F0.44
F0.67
tp1274
a(F0.76
F0.65
F0.81
tp1275
a(F0.91
F0.83
F0.91
tp1276
a(F0.85
F0.94
F0.83
tp1277
a(F0.65
F0.86
F0.63
tp1278
a(F0.35
F0.68
F0.38
tp1279
a(F0.11
F0.47
F0.22
tp1280
asS'RdBu'
p1281
(lp1282
(F0.7
F0.09
F0.17
tp1283
a(F0.84
F0.38
F0.3
tp1284
a(F0.96
F0.65
F0.51
tp1285
a(F0.99
F0.86
F0.78
tp1286
a(F0.82
F0.9
F0.94
tp1287
a(F0.57
F0.77
F0.87
tp1288
a(F0.26
F0.58
F0.76
tp1289
a(F0.13
F0.4
F0.67
tp1290
asS'RdGy'
p1291
(lp1292
(F0.7
F0.09
F0.17
tp1293
a(F0.84
F0.38
F0.3
tp1294
a(F0.96
F0.65
F0.51
tp1295
a(F0.99
F0.86
F0.78
tp1296
a(F0.88
F0.88
F0.88
tp1297
a(F0.73
F0.73
F0.73
tp1298
a(F0.53
F0.53
F0.53
tp1299
a(F0.3
F0.3
F0.3
tp1300
asS'RdYlBu'
p1301
(lp1302
(F0.84
F0.19
F0.15
tp1303
a(F0.96
F0.43
F0.26
tp1304
a(F0.99
F0.68
F0.38
tp1305
a(F1.0
F0.88
F0.56
tp1306
a(F0.88
F0.95
F0.97
tp1307
a(F0.67
F0.85
F0.91
tp1308
a(F0.45
F0.68
F0.82
tp1309
a(F0.27
F0.46
F0.71
tp1310
asS'PiYG'
p1311
(lp1312
(F0.77
F0.11
F0.49
tp1313
a(F0.87
F0.47
F0.68
tp1314
a(F0.95
F0.71
F0.85
tp1315
a(F0.99
F0.88
F0.94
tp1316
a(F0.9
F0.96
F0.82
tp1317
a(F0.72
F0.88
F0.53
tp1318
a(F0.5
F0.74
F0.25
tp1319
a(F0.3
F0.57
F0.13
tp1320
asS'PuOr'
p1321
(lp1322
(F0.7
F0.35
F0.02
tp1323
a(F0.88
F0.51
F0.08
tp1324
a(F0.99
F0.72
F0.39
tp1325
a(F1.0
F0.88
F0.71
tp1326
a(F0.85
F0.85
F0.92
tp1327
a(F0.7
F0.67
F0.82
tp1328
a(F0.5
F0.45
F0.67
tp1329
a(F0.33
F0.15
F0.53
tp1330
asS'BrBG'
p1331
(lp1332
(F0.55
F0.32
F0.04
tp1333
a(F0.75
F0.51
F0.18
tp1334
a(F0.87
F0.76
F0.49
tp1335
a(F0.96
F0.91
F0.76
tp1336
a(F0.78
F0.92
F0.9
tp1337
a(F0.5
F0.8
F0.76
tp1338
a(F0.21
F0.59
F0.56
tp1339
a(F0.0
F0.4
F0.37
tp1340
assg49
(dp1341
S'Pastel2'
p1342
(lp1343
(F0.7
F0.89
F0.8
tp1344
a(F0.99
F0.8
F0.67
tp1345
a(F0.8
F0.84
F0.91
tp1346
a(F0.96
F0.79
F0.89
tp1347
a(F0.9
F0.96
F0.79
tp1348
a(F1.0
F0.95
F0.68
tp1349
a(F0.95
F0.89
F0.8
tp1350
a(F0.8
F0.8
F0.8
tp1351
asS'Pastel1'
p1352
(lp1353
(F0.98
F0.71
F0.68
tp1354
a(F0.7
F0.8
F0.89
tp1355
a(F0.8
F0.92
F0.77
tp1356
a(F0.87
F0.8
F0.89
tp1357
a(F1.0
F0.85
F0.65
tp1358
a(F1.0
F1.0
F0.8
tp1359
a(F0.9
F0.85
F0.74
tp1360
a(F0.99
F0.85
F0.93
tp1361
asS'Dark2'
p1362
(lp1363
(F0.11
F0.62
F0.47
tp1364
a(F0.85
F0.37
F0.01
tp1365
a(F0.46
F0.44
F0.7
tp1366
a(F0.91
F0.16
F0.54
tp1367
a(F0.4
F0.65
F0.12
tp1368
a(F0.9
F0.67
F0.01
tp1369
a(F0.65
F0.46
F0.11
tp1370
a(F0.4
F0.4
F0.4
tp1371
asS'Accent'
p1372
(lp1373
(F0.5
F0.79
F0.5
tp1374
a(F0.75
F0.68
F0.83
tp1375
a(F0.99
F0.75
F0.53
tp1376
a(F1.0
F1.0
F0.6
tp1377
a(F0.22
F0.42
F0.69
tp1378
a(F0.94
F0.01
F0.5
tp1379
a(F0.75
F0.36
F0.09
tp1380
a(F0.4
F0.4
F0.4
tp1381
asS'Paired'
p1382
(lp1383
(F0.65
F0.81
F0.89
tp1384
a(F0.12
F0.47
F0.71
tp1385
a(F0.7
F0.87
F0.54
tp1386
a(F0.2
F0.63
F0.17
tp1387
a(F0.98
F0.6
F0.6
tp1388
a(F0.89
F0.1
F0.11
tp1389
a(F0.99
F0.75
F0.44
tp1390
a(F1.0
F0.5
F0.0
tp1391
asS'Set1'
p1392
(lp1393
(F0.89
F0.1
F0.11
tp1394
a(F0.22
F0.49
F0.72
tp1395
a(F0.3
F0.69
F0.29
tp1396
a(F0.6
F0.31
F0.64
tp1397
a(F1.0
F0.5
F0.0
tp1398
a(F1.0
F1.0
F0.2
tp1399
a(F0.65
F0.34
F0.16
tp1400
a(F0.97
F0.51
F0.75
tp1401
asS'Set2'
p1402
(lp1403
(F0.4
F0.76
F0.65
tp1404
a(F0.99
F0.55
F0.38
tp1405
a(F0.55
F0.63
F0.8
tp1406
a(F0.91
F0.54
F0.76
tp1407
a(F0.65
F0.85
F0.33
tp1408
a(F1.0
F0.85
F0.18
tp1409
a(F0.9
F0.77
F0.58
tp1410
a(F0.7
F0.7
F0.7
tp1411
asS'Set3'
p1412
(lp1413
(F0.55
F0.83
F0.78
tp1414
a(F1.0
F1.0
F0.7
tp1415
a(F0.75
F0.73
F0.85
tp1416
a(F0.98
F0.5
F0.45
tp1417
a(F0.5
F0.69
F0.83
tp1418
a(F0.99
F0.71
F0.38
tp1419
a(F0.7
F0.87
F0.41
tp1420
a(F0.99
F0.8
F0.9
tp1421
assg91
(dp1422
S'Reds'
p1423
(lp1424
(F1.0
F0.96
F0.94
tp1425
a(F1.0
F0.88
F0.82
tp1426
a(F0.99
F0.73
F0.63
tp1427
a(F0.99
F0.57
F0.45
tp1428
a(F0.98
F0.42
F0.29
tp1429
a(F0.94
F0.23
F0.17
tp1430
a(F0.8
F0.09
F0.11
tp1431
a(F0.6
F0.0
F0.05
tp1432
asS'BuGn'
p1433
(lp1434
(F0.97
F0.99
F0.99
tp1435
a(F0.9
F0.96
F0.98
tp1436
a(F0.8
F0.93
F0.9
tp1437
a(F0.6
F0.85
F0.79
tp1438
a(F0.4
F0.76
F0.64
tp1439
a(F0.25
F0.68
F0.46
tp1440
a(F0.14
F0.55
F0.27
tp1441
a(F0.0
F0.35
F0.14
tp1442
asS'RdPu'
p1443
(lp1444
(F1.0
F0.97
F0.95
tp1445
a(F0.99
F0.88
F0.87
tp1446
a(F0.99
F0.77
F0.75
tp1447
a(F0.98
F0.62
F0.71
tp1448
a(F0.97
F0.41
F0.63
tp1449
a(F0.87
F0.2
F0.59
tp1450
a(F0.68
F0.0
F0.49
tp1451
a(F0.48
F0.0
F0.47
tp1452
asS'OrRd'
p1453
(lp1454
(F1.0
F0.97
F0.93
tp1455
a(F1.0
F0.91
F0.78
tp1456
a(F0.99
F0.83
F0.62
tp1457
a(F0.99
F0.73
F0.52
tp1458
a(F0.99
F0.55
F0.35
tp1459
a(F0.94
F0.4
F0.28
tp1460
a(F0.84
F0.19
F0.12
tp1461
a(F0.6
F0.0
F0.0
tp1462
asS'PuBu'
p1463
(lp1464
(F1.0
F0.97
F0.98
tp1465
a(F0.93
F0.91
F0.95
tp1466
a(F0.82
F0.82
F0.9
tp1467
a(F0.65
F0.74
F0.86
tp1468
a(F0.45
F0.66
F0.81
tp1469
a(F0.21
F0.56
F0.75
tp1470
a(F0.02
F0.44
F0.69
tp1471
a(F0.01
F0.31
F0.48
tp1472
asS'Greens'
p1473
(lp1474
(F0.97
F0.99
F0.96
tp1475
a(F0.9
F0.96
F0.88
tp1476
a(F0.78
F0.91
F0.75
tp1477
a(F0.63
F0.85
F0.61
tp1478
a(F0.45
F0.77
F0.46
tp1479
a(F0.25
F0.67
F0.36
tp1480
a(F0.14
F0.55
F0.27
tp1481
a(F0.0
F0.35
F0.2
tp1482
asS'GnBu'
p1483
(lp1484
(F0.97
F0.99
F0.94
tp1485
a(F0.88
F0.95
F0.86
tp1486
a(F0.8
F0.92
F0.77
tp1487
a(F0.66
F0.87
F0.71
tp1488
a(F0.48
F0.8
F0.77
tp1489
a(F0.31
F0.7
F0.83
tp1490
a(F0.17
F0.55
F0.75
tp1491
a(F0.03
F0.35
F0.62
tp1492
asS'BuPu'
p1493
(lp1494
(F0.97
F0.99
F0.99
tp1495
a(F0.88
F0.93
F0.96
tp1496
a(F0.75
F0.83
F0.9
tp1497
a(F0.62
F0.74
F0.85
tp1498
a(F0.55
F0.59
F0.78
tp1499
a(F0.55
F0.42
F0.69
tp1500
a(F0.53
F0.25
F0.62
tp1501
a(F0.43
F0.0
F0.42
tp1502
asS'YlGnBu'
p1503
(lp1504
(F1.0
F1.0
F0.85
tp1505
a(F0.93
F0.97
F0.69
tp1506
a(F0.78
F0.91
F0.71
tp1507
a(F0.5
F0.8
F0.73
tp1508
a(F0.25
F0.71
F0.77
tp1509
a(F0.11
F0.57
F0.75
tp1510
a(F0.13
F0.37
F0.66
tp1511
a(F0.05
F0.17
F0.52
tp1512
asS'Oranges'
p1513
(lp1514
(F1.0
F0.96
F0.92
tp1515
a(F1.0
F0.9
F0.81
tp1516
a(F0.99
F0.82
F0.64
tp1517
a(F0.99
F0.68
F0.42
tp1518
a(F0.99
F0.55
F0.24
tp1519
a(F0.95
F0.41
F0.07
tp1520
a(F0.85
F0.28
F0.0
tp1521
a(F0.55
F0.18
F0.02
tp1522
asS'Greys'
p1523
(lp1524
(F1.0
F1.0
F1.0
tp1525
a(F0.94
F0.94
F0.94
tp1526
a(F0.85
F0.85
F0.85
tp1527
a(F0.74
F0.74
F0.74
tp1528
a(F0.59
F0.59
F0.59
tp1529
a(F0.45
F0.45
F0.45
tp1530
a(F0.32
F0.32
F0.32
tp1531
a(F0.15
F0.15
F0.15
tp1532
asS'YlOrRd'
p1533
(lp1534
(F1.0
F1.0
F0.8
tp1535
a(F1.0
F0.93
F0.63
tp1536
a(F1.0
F0.85
F0.46
tp1537
a(F1.0
F0.7
F0.3
tp1538
a(F0.99
F0.55
F0.24
tp1539
a(F0.99
F0.31
F0.16
tp1540
a(F0.89
F0.1
F0.11
tp1541
a(F0.69
F0.0
F0.15
tp1542
asS'YlOrBr'
p1543
(lp1544
(F1.0
F1.0
F0.9
tp1545
a(F1.0
F0.97
F0.74
tp1546
a(F1.0
F0.89
F0.57
tp1547
a(F1.0
F0.77
F0.31
tp1548
a(F1.0
F0.6
F0.16
tp1549
a(F0.93
F0.44
F0.08
tp1550
a(F0.8
F0.3
F0.01
tp1551
a(F0.55
F0.18
F0.02
tp1552
asS'PuRd'
p1553
(lp1554
(F0.97
F0.96
F0.98
tp1555
a(F0.91
F0.88
F0.94
tp1556
a(F0.83
F0.73
F0.85
tp1557
a(F0.79
F0.58
F0.78
tp1558
a(F0.87
F0.4
F0.69
tp1559
a(F0.91
F0.16
F0.54
tp1560
a(F0.81
F0.07
F0.34
tp1561
a(F0.57
F0.0
F0.25
tp1562
asS'Blues'
p1563
(lp1564
(F0.97
F0.98
F1.0
tp1565
a(F0.87
F0.92
F0.97
tp1566
a(F0.78
F0.86
F0.94
tp1567
a(F0.62
F0.79
F0.88
tp1568
a(F0.42
F0.68
F0.84
tp1569
a(F0.26
F0.57
F0.78
tp1570
a(F0.13
F0.44
F0.71
tp1571
a(F0.03
F0.27
F0.58
tp1572
asS'PuBuGn'
p1573
(lp1574
(F1.0
F0.97
F0.98
tp1575
a(F0.93
F0.89
F0.94
tp1576
a(F0.82
F0.82
F0.9
tp1577
a(F0.65
F0.74
F0.86
tp1578
a(F0.4
F0.66
F0.81
tp1579
a(F0.21
F0.56
F0.75
tp1580
a(F0.01
F0.51
F0.54
tp1581
a(F0.0
F0.39
F0.31
tp1582
asS'YlGn'
p1583
(lp1584
(F1.0
F1.0
F0.9
tp1585
a(F0.97
F0.99
F0.73
tp1586
a(F0.85
F0.94
F0.64
tp1587
a(F0.68
F0.87
F0.56
tp1588
a(F0.47
F0.78
F0.47
tp1589
a(F0.25
F0.67
F0.36
tp1590
a(F0.14
F0.52
F0.26
tp1591
a(F0.0
F0.35
F0.2
tp1592
asS'Purples'
p1593
(lp1594
(F0.99
F0.98
F0.99
tp1595
a(F0.94
F0.93
F0.96
tp1596
a(F0.85
F0.85
F0.92
tp1597
a(F0.74
F0.74
F0.86
tp1598
a(F0.62
F0.6
F0.78
tp1599
a(F0.5
F0.49
F0.73
tp1600
a(F0.42
F0.32
F0.64
tp1601
a(F0.29
F0.08
F0.53
tp1602
asssI9
(dp1603
g2
(dp1604
S'Spectral'
p1605
(lp1606
(F0.84
F0.24
F0.31
tp1607
a(F0.96
F0.43
F0.26
tp1608
a(F0.99
F0.68
F0.38
tp1609
a(F1.0
F0.88
F0.55
tp1610
a(F1.0
F1.0
F0.75
tp1611
a(F0.9
F0.96
F0.6
tp1612
a(F0.67
F0.87
F0.64
tp1613
a(F0.4
F0.76
F0.65
tp1614
a(F0.2
F0.53
F0.74
tp1615
asS'RdYlGn'
p1616
(lp1617
(F0.84
F0.19
F0.15
tp1618
a(F0.96
F0.43
F0.26
tp1619
a(F0.99
F0.68
F0.38
tp1620
a(F1.0
F0.88
F0.55
tp1621
a(F1.0
F1.0
F0.75
tp1622
a(F0.85
F0.94
F0.55
tp1623
a(F0.65
F0.85
F0.42
tp1624
a(F0.4
F0.74
F0.39
tp1625
a(F0.1
F0.6
F0.31
tp1626
asS'PRGn'
p1627
(lp1628
(F0.46
F0.16
F0.51
tp1629
a(F0.6
F0.44
F0.67
tp1630
a(F0.76
F0.65
F0.81
tp1631
a(F0.91
F0.83
F0.91
tp1632
a(F0.97
F0.97
F0.97
tp1633
a(F0.85
F0.94
F0.83
tp1634
a(F0.65
F0.86
F0.63
tp1635
a(F0.35
F0.68
F0.38
tp1636
a(F0.11
F0.47
F0.22
tp1637
asS'RdBu'
p1638
(lp1639
(F0.7
F0.09
F0.17
tp1640
a(F0.84
F0.38
F0.3
tp1641
a(F0.96
F0.65
F0.51
tp1642
a(F0.99
F0.86
F0.78
tp1643
a(F0.97
F0.97
F0.97
tp1644
a(F0.82
F0.9
F0.94
tp1645
a(F0.57
F0.77
F0.87
tp1646
a(F0.26
F0.58
F0.76
tp1647
a(F0.13
F0.4
F0.67
tp1648
asS'RdGy'
p1649
(lp1650
(F0.7
F0.09
F0.17
tp1651
a(F0.84
F0.38
F0.3
tp1652
a(F0.96
F0.65
F0.51
tp1653
a(F0.99
F0.86
F0.78
tp1654
a(F1.0
F1.0
F1.0
tp1655
a(F0.88
F0.88
F0.88
tp1656
a(F0.73
F0.73
F0.73
tp1657
a(F0.53
F0.53
F0.53
tp1658
a(F0.3
F0.3
F0.3
tp1659
asS'RdYlBu'
p1660
(lp1661
(F0.84
F0.19
F0.15
tp1662
a(F0.96
F0.43
F0.26
tp1663
a(F0.99
F0.68
F0.38
tp1664
a(F1.0
F0.88
F0.56
tp1665
a(F1.0
F1.0
F0.75
tp1666
a(F0.88
F0.95
F0.97
tp1667
a(F0.67
F0.85
F0.91
tp1668
a(F0.45
F0.68
F0.82
tp1669
a(F0.27
F0.46
F0.71
tp1670
asS'PiYG'
p1671
(lp1672
(F0.77
F0.11
F0.49
tp1673
a(F0.87
F0.47
F0.68
tp1674
a(F0.95
F0.71
F0.85
tp1675
a(F0.99
F0.88
F0.94
tp1676
a(F0.97
F0.97
F0.97
tp1677
a(F0.9
F0.96
F0.82
tp1678
a(F0.72
F0.88
F0.53
tp1679
a(F0.5
F0.74
F0.25
tp1680
a(F0.3
F0.57
F0.13
tp1681
asS'PuOr'
p1682
(lp1683
(F0.7
F0.35
F0.02
tp1684
a(F0.88
F0.51
F0.08
tp1685
a(F0.99
F0.72
F0.39
tp1686
a(F1.0
F0.88
F0.71
tp1687
a(F0.97
F0.97
F0.97
tp1688
a(F0.85
F0.85
F0.92
tp1689
a(F0.7
F0.67
F0.82
tp1690
a(F0.5
F0.45
F0.67
tp1691
a(F0.33
F0.15
F0.53
tp1692
asS'BrBG'
p1693
(lp1694
(F0.55
F0.32
F0.04
tp1695
a(F0.75
F0.51
F0.18
tp1696
a(F0.87
F0.76
F0.49
tp1697
a(F0.96
F0.91
F0.76
tp1698
a(F0.96
F0.96
F0.96
tp1699
a(F0.78
F0.92
F0.9
tp1700
a(F0.5
F0.8
F0.76
tp1701
a(F0.21
F0.59
F0.56
tp1702
a(F0.0
F0.4
F0.37
tp1703
assg49
(dp1704
S'Paired'
p1705
(lp1706
(F0.65
F0.81
F0.89
tp1707
a(F0.12
F0.47
F0.71
tp1708
a(F0.7
F0.87
F0.54
tp1709
a(F0.2
F0.63
F0.17
tp1710
a(F0.98
F0.6
F0.6
tp1711
a(F0.89
F0.1
F0.11
tp1712
a(F0.99
F0.75
F0.44
tp1713
a(F1.0
F0.5
F0.0
tp1714
a(F0.79
F0.7
F0.84
tp1715
asS'Pastel1'
p1716
(lp1717
(F0.98
F0.71
F0.68
tp1718
a(F0.7
F0.8
F0.89
tp1719
a(F0.8
F0.92
F0.77
tp1720
a(F0.87
F0.8
F0.89
tp1721
a(F1.0
F0.85
F0.65
tp1722
a(F1.0
F1.0
F0.8
tp1723
a(F0.9
F0.85
F0.74
tp1724
a(F0.99
F0.85
F0.93
tp1725
a(F0.95
F0.95
F0.95
tp1726
asS'Set1'
p1727
(lp1728
(F0.89
F0.1
F0.11
tp1729
a(F0.22
F0.49
F0.72
tp1730
a(F0.3
F0.69
F0.29
tp1731
a(F0.6
F0.31
F0.64
tp1732
a(F1.0
F0.5
F0.0
tp1733
a(F1.0
F1.0
F0.2
tp1734
a(F0.65
F0.34
F0.16
tp1735
a(F0.97
F0.51
F0.75
tp1736
a(F0.6
F0.6
F0.6
tp1737
asS'Set3'
p1738
(lp1739
(F0.55
F0.83
F0.78
tp1740
a(F1.0
F1.0
F0.7
tp1741
a(F0.75
F0.73
F0.85
tp1742
a(F0.98
F0.5
F0.45
tp1743
a(F0.5
F0.69
F0.83
tp1744
a(F0.99
F0.71
F0.38
tp1745
a(F0.7
F0.87
F0.41
tp1746
a(F0.99
F0.8
F0.9
tp1747
a(F0.85
F0.85
F0.85
tp1748
assg91
(dp1749
S'Reds'
p1750
(lp1751
(F1.0
F0.96
F0.94
tp1752
a(F1.0
F0.88
F0.82
tp1753
a(F0.99
F0.73
F0.63
tp1754
a(F0.99
F0.57
F0.45
tp1755
a(F0.98
F0.42
F0.29
tp1756
a(F0.94
F0.23
F0.17
tp1757
a(F0.8
F0.09
F0.11
tp1758
a(F0.65
F0.06
F0.08
tp1759
a(F0.4
F0.0
F0.05
tp1760
asS'BuGn'
p1761
(lp1762
(F0.97
F0.99
F0.99
tp1763
a(F0.9
F0.96
F0.98
tp1764
a(F0.8
F0.93
F0.9
tp1765
a(F0.6
F0.85
F0.79
tp1766
a(F0.4
F0.76
F0.64
tp1767
a(F0.25
F0.68
F0.46
tp1768
a(F0.14
F0.55
F0.27
tp1769
a(F0.0
F0.43
F0.17
tp1770
a(F0.0
F0.27
F0.11
tp1771
asS'RdPu'
p1772
(lp1773
(F1.0
F0.97
F0.95
tp1774
a(F0.99
F0.88
F0.87
tp1775
a(F0.99
F0.77
F0.75
tp1776
a(F0.98
F0.62
F0.71
tp1777
a(F0.97
F0.41
F0.63
tp1778
a(F0.87
F0.2
F0.59
tp1779
a(F0.68
F0.0
F0.49
tp1780
a(F0.48
F0.0
F0.47
tp1781
a(F0.29
F0.0
F0.42
tp1782
asS'OrRd'
p1783
(lp1784
(F1.0
F0.97
F0.93
tp1785
a(F1.0
F0.91
F0.78
tp1786
a(F0.99
F0.83
F0.62
tp1787
a(F0.99
F0.73
F0.52
tp1788
a(F0.99
F0.55
F0.35
tp1789
a(F0.94
F0.4
F0.28
tp1790
a(F0.84
F0.19
F0.12
tp1791
a(F0.7
F0.0
F0.0
tp1792
a(F0.5
F0.0
F0.0
tp1793
asS'PuBu'
p1794
(lp1795
(F1.0
F0.97
F0.98
tp1796
a(F0.93
F0.91
F0.95
tp1797
a(F0.82
F0.82
F0.9
tp1798
a(F0.65
F0.74
F0.86
tp1799
a(F0.45
F0.66
F0.81
tp1800
a(F0.21
F0.56
F0.75
tp1801
a(F0.02
F0.44
F0.69
tp1802
a(F0.02
F0.35
F0.55
tp1803
a(F0.01
F0.22
F0.35
tp1804
asS'Greens'
p1805
(lp1806
(F0.97
F0.99
F0.96
tp1807
a(F0.9
F0.96
F0.88
tp1808
a(F0.78
F0.91
F0.75
tp1809
a(F0.63
F0.85
F0.61
tp1810
a(F0.45
F0.77
F0.46
tp1811
a(F0.25
F0.67
F0.36
tp1812
a(F0.14
F0.55
F0.27
tp1813
a(F0.0
F0.43
F0.17
tp1814
a(F0.0
F0.27
F0.11
tp1815
asS'GnBu'
p1816
(lp1817
(F0.97
F0.99
F0.94
tp1818
a(F0.88
F0.95
F0.86
tp1819
a(F0.8
F0.92
F0.77
tp1820
a(F0.66
F0.87
F0.71
tp1821
a(F0.48
F0.8
F0.77
tp1822
a(F0.31
F0.7
F0.83
tp1823
a(F0.17
F0.55
F0.75
tp1824
a(F0.03
F0.41
F0.67
tp1825
a(F0.03
F0.25
F0.51
tp1826
asS'BuPu'
p1827
(lp1828
(F0.97
F0.99
F0.99
tp1829
a(F0.88
F0.93
F0.96
tp1830
a(F0.75
F0.83
F0.9
tp1831
a(F0.62
F0.74
F0.85
tp1832
a(F0.55
F0.59
F0.78
tp1833
a(F0.55
F0.42
F0.69
tp1834
a(F0.53
F0.25
F0.62
tp1835
a(F0.51
F0.06
F0.49
tp1836
a(F0.3
F0.0
F0.29
tp1837
asS'YlGnBu'
p1838
(lp1839
(F1.0
F1.0
F0.85
tp1840
a(F0.93
F0.97
F0.69
tp1841
a(F0.78
F0.91
F0.71
tp1842
a(F0.5
F0.8
F0.73
tp1843
a(F0.25
F0.71
F0.77
tp1844
a(F0.11
F0.57
F0.75
tp1845
a(F0.13
F0.37
F0.66
tp1846
a(F0.15
F0.2
F0.58
tp1847
a(F0.03
F0.11
F0.35
tp1848
asS'Oranges'
p1849
(lp1850
(F1.0
F0.96
F0.92
tp1851
a(F1.0
F0.9
F0.81
tp1852
a(F0.99
F0.82
F0.64
tp1853
a(F0.99
F0.68
F0.42
tp1854
a(F0.99
F0.55
F0.24
tp1855
a(F0.95
F0.41
F0.07
tp1856
a(F0.85
F0.28
F0.0
tp1857
a(F0.65
F0.21
F0.01
tp1858
a(F0.5
F0.15
F0.02
tp1859
asS'Greys'
p1860
(lp1861
(F1.0
F1.0
F1.0
tp1862
a(F0.94
F0.94
F0.94
tp1863
a(F0.85
F0.85
F0.85
tp1864
a(F0.74
F0.74
F0.74
tp1865
a(F0.59
F0.59
F0.59
tp1866
a(F0.45
F0.45
F0.45
tp1867
a(F0.32
F0.32
F0.32
tp1868
a(F0.15
F0.15
F0.15
tp1869
a(F0.0
F0.0
F0.0
tp1870
asS'YlOrRd'
p1871
(lp1872
(F1.0
F1.0
F0.8
tp1873
a(F1.0
F0.93
F0.63
tp1874
a(F1.0
F0.85
F0.46
tp1875
a(F1.0
F0.7
F0.3
tp1876
a(F0.99
F0.55
F0.24
tp1877
a(F0.99
F0.31
F0.16
tp1878
a(F0.89
F0.1
F0.11
tp1879
a(F0.74
F0.0
F0.15
tp1880
a(F0.5
F0.0
F0.15
tp1881
asS'YlOrBr'
p1882
(lp1883
(F1.0
F1.0
F0.9
tp1884
a(F1.0
F0.97
F0.74
tp1885
a(F1.0
F0.89
F0.57
tp1886
a(F1.0
F0.77
F0.31
tp1887
a(F1.0
F0.6
F0.16
tp1888
a(F0.93
F0.44
F0.08
tp1889
a(F0.8
F0.3
F0.01
tp1890
a(F0.6
F0.2
F0.02
tp1891
a(F0.4
F0.15
F0.02
tp1892
asS'PuRd'
p1893
(lp1894
(F0.97
F0.96
F0.98
tp1895
a(F0.91
F0.88
F0.94
tp1896
a(F0.83
F0.73
F0.85
tp1897
a(F0.79
F0.58
F0.78
tp1898
a(F0.87
F0.4
F0.69
tp1899
a(F0.91
F0.16
F0.54
tp1900
a(F0.81
F0.07
F0.34
tp1901
a(F0.6
F0.0
F0.26
tp1902
a(F0.4
F0.0
F0.12
tp1903
asS'Blues'
p1904
(lp1905
(F0.97
F0.98
F1.0
tp1906
a(F0.87
F0.92
F0.97
tp1907
a(F0.78
F0.86
F0.94
tp1908
a(F0.62
F0.79
F0.88
tp1909
a(F0.42
F0.68
F0.84
tp1910
a(F0.26
F0.57
F0.78
tp1911
a(F0.13
F0.44
F0.71
tp1912
a(F0.03
F0.32
F0.61
tp1913
a(F0.03
F0.19
F0.42
tp1914
asS'PuBuGn'
p1915
(lp1916
(F1.0
F0.97
F0.98
tp1917
a(F0.93
F0.89
F0.94
tp1918
a(F0.82
F0.82
F0.9
tp1919
a(F0.65
F0.74
F0.86
tp1920
a(F0.4
F0.66
F0.81
tp1921
a(F0.21
F0.56
F0.75
tp1922
a(F0.01
F0.51
F0.54
tp1923
a(F0.0
F0.42
F0.35
tp1924
a(F0.0
F0.27
F0.21
tp1925
asS'YlGn'
p1926
(lp1927
(F1.0
F1.0
F0.9
tp1928
a(F0.97
F0.99
F0.73
tp1929
a(F0.85
F0.94
F0.64
tp1930
a(F0.68
F0.87
F0.56
tp1931
a(F0.47
F0.78
F0.47
tp1932
a(F0.25
F0.67
F0.36
tp1933
a(F0.14
F0.52
F0.26
tp1934
a(F0.0
F0.41
F0.22
tp1935
a(F0.0
F0.27
F0.16
tp1936
asS'Purples'
p1937
(lp1938
(F0.99
F0.98
F0.99
tp1939
a(F0.94
F0.93
F0.96
tp1940
a(F0.85
F0.85
F0.92
tp1941
a(F0.74
F0.74
F0.86
tp1942
a(F0.62
F0.6
F0.78
tp1943
a(F0.5
F0.49
F0.73
tp1944
a(F0.42
F0.32
F0.64
tp1945
a(F0.33
F0.15
F0.56
tp1946
a(F0.25
F0.0
F0.49
tp1947
asssI10
(dp1948
g2
(dp1949
S'Spectral'
p1950
(lp1951
(F0.62
F0.0
F0.26
tp1952
a(F0.84
F0.24
F0.31
tp1953
a(F0.96
F0.43
F0.26
tp1954
a(F0.99
F0.68
F0.38
tp1955
a(F1.0
F0.88
F0.55
tp1956
a(F0.9
F0.96
F0.6
tp1957
a(F0.67
F0.87
F0.64
tp1958
a(F0.4
F0.76
F0.65
tp1959
a(F0.2
F0.53
F0.74
tp1960
a(F0.37
F0.31
F0.64
tp1961
asS'RdYlGn'
p1962
(lp1963
(F0.65
F0.0
F0.15
tp1964
a(F0.84
F0.19
F0.15
tp1965
a(F0.96
F0.43
F0.26
tp1966
a(F0.99
F0.68
F0.38
tp1967
a(F1.0
F0.88
F0.55
tp1968
a(F0.85
F0.94
F0.55
tp1969
a(F0.65
F0.85
F0.42
tp1970
a(F0.4
F0.74
F0.39
tp1971
a(F0.1
F0.6
F0.31
tp1972
a(F0.0
F0.41
F0.22
tp1973
asS'PRGn'
p1974
(lp1975
(F0.25
F0.0
F0.29
tp1976
a(F0.46
F0.16
F0.51
tp1977
a(F0.6
F0.44
F0.67
tp1978
a(F0.76
F0.65
F0.81
tp1979
a(F0.91
F0.83
F0.91
tp1980
a(F0.85
F0.94
F0.83
tp1981
a(F0.65
F0.86
F0.63
tp1982
a(F0.35
F0.68
F0.38
tp1983
a(F0.11
F0.47
F0.22
tp1984
a(F0.0
F0.27
F0.11
tp1985
asS'RdBu'
p1986
(lp1987
(F0.4
F0.0
F0.12
tp1988
a(F0.7
F0.09
F0.17
tp1989
a(F0.84
F0.38
F0.3
tp1990
a(F0.96
F0.65
F0.51
tp1991
a(F0.99
F0.86
F0.78
tp1992
a(F0.82
F0.9
F0.94
tp1993
a(F0.57
F0.77
F0.87
tp1994
a(F0.26
F0.58
F0.76
tp1995
a(F0.13
F0.4
F0.67
tp1996
a(F0.02
F0.19
F0.38
tp1997
asS'RdGy'
p1998
(lp1999
(F0.4
F0.0
F0.12
tp2000
a(F0.7
F0.09
F0.17
tp2001
a(F0.84
F0.38
F0.3
tp2002
a(F0.96
F0.65
F0.51
tp2003
a(F0.99
F0.86
F0.78
tp2004
a(F0.88
F0.88
F0.88
tp2005
a(F0.73
F0.73
F0.73
tp2006
a(F0.53
F0.53
F0.53
tp2007
a(F0.3
F0.3
F0.3
tp2008
a(F0.1
F0.1
F0.1
tp2009
asS'RdYlBu'
p2010
(lp2011
(F0.65
F0.0
F0.15
tp2012
a(F0.84
F0.19
F0.15
tp2013
a(F0.96
F0.43
F0.26
tp2014
a(F0.99
F0.68
F0.38
tp2015
a(F1.0
F0.88
F0.56
tp2016
a(F0.88
F0.95
F0.97
tp2017
a(F0.67
F0.85
F0.91
tp2018
a(F0.45
F0.68
F0.82
tp2019
a(F0.27
F0.46
F0.71
tp2020
a(F0.19
F0.21
F0.58
tp2021
asS'PiYG'
p2022
(lp2023
(F0.56
F0.0
F0.32
tp2024
a(F0.77
F0.11
F0.49
tp2025
a(F0.87
F0.47
F0.68
tp2026
a(F0.95
F0.71
F0.85
tp2027
a(F0.99
F0.88
F0.94
tp2028
a(F0.9
F0.96
F0.82
tp2029
a(F0.72
F0.88
F0.53
tp2030
a(F0.5
F0.74
F0.25
tp2031
a(F0.3
F0.57
F0.13
tp2032
a(F0.15
F0.39
F0.1
tp2033
asS'PuOr'
p2034
(lp2035
(F0.5
F0.23
F0.03
tp2036
a(F0.7
F0.35
F0.02
tp2037
a(F0.88
F0.51
F0.08
tp2038
a(F0.99
F0.72
F0.39
tp2039
a(F1.0
F0.88
F0.71
tp2040
a(F0.85
F0.85
F0.92
tp2041
a(F0.7
F0.67
F0.82
tp2042
a(F0.5
F0.45
F0.67
tp2043
a(F0.33
F0.15
F0.53
tp2044
a(F0.18
F0.0
F0.29
tp2045
asS'BrBG'
p2046
(lp2047
(F0.33
F0.19
F0.02
tp2048
a(F0.55
F0.32
F0.04
tp2049
a(F0.75
F0.51
F0.18
tp2050
a(F0.87
F0.76
F0.49
tp2051
a(F0.96
F0.91
F0.76
tp2052
a(F0.78
F0.92
F0.9
tp2053
a(F0.5
F0.8
F0.76
tp2054
a(F0.21
F0.59
F0.56
tp2055
a(F0.0
F0.4
F0.37
tp2056
a(F0.0
F0.24
F0.19
tp2057
assg49
(dp2058
S'Paired'
p2059
(lp2060
(F0.65
F0.81
F0.89
tp2061
a(F0.12
F0.47
F0.71
tp2062
a(F0.7
F0.87
F0.54
tp2063
a(F0.2
F0.63
F0.17
tp2064
a(F0.98
F0.6
F0.6
tp2065
a(F0.89
F0.1
F0.11
tp2066
a(F0.99
F0.75
F0.44
tp2067
a(F1.0
F0.5
F0.0
tp2068
a(F0.79
F0.7
F0.84
tp2069
a(F0.42
F0.24
F0.6
tp2070
asS'Set3'
p2071
(lp2072
(F0.55
F0.83
F0.78
tp2073
a(F1.0
F1.0
F0.7
tp2074
a(F0.75
F0.73
F0.85
tp2075
a(F0.98
F0.5
F0.45
tp2076
a(F0.5
F0.69
F0.83
tp2077
a(F0.99
F0.71
F0.38
tp2078
a(F0.7
F0.87
F0.41
tp2079
a(F0.99
F0.8
F0.9
tp2080
a(F0.85
F0.85
F0.85
tp2081
a(F0.74
F0.5
F0.74
tp2082
asssI11
(dp2083
g2
(dp2084
S'Spectral'
p2085
(lp2086
(F0.62
F0.0
F0.26
tp2087
a(F0.84
F0.24
F0.31
tp2088
a(F0.96
F0.43
F0.26
tp2089
a(F0.99
F0.68
F0.38
tp2090
a(F1.0
F0.88
F0.55
tp2091
a(F1.0
F1.0
F0.75
tp2092
a(F0.9
F0.96
F0.6
tp2093
a(F0.67
F0.87
F0.64
tp2094
a(F0.4
F0.76
F0.65
tp2095
a(F0.2
F0.53
F0.74
tp2096
a(F0.37
F0.31
F0.64
tp2097
asS'RdYlGn'
p2098
(lp2099
(F0.65
F0.0
F0.15
tp2100
a(F0.84
F0.19
F0.15
tp2101
a(F0.96
F0.43
F0.26
tp2102
a(F0.99
F0.68
F0.38
tp2103
a(F1.0
F0.88
F0.55
tp2104
a(F1.0
F1.0
F0.75
tp2105
a(F0.85
F0.94
F0.55
tp2106
a(F0.65
F0.85
F0.42
tp2107
a(F0.4
F0.74
F0.39
tp2108
a(F0.1
F0.6
F0.31
tp2109
a(F0.0
F0.41
F0.22
tp2110
asS'PRGn'
p2111
(lp2112
(F0.25
F0.0
F0.29
tp2113
a(F0.46
F0.16
F0.51
tp2114
a(F0.6
F0.44
F0.67
tp2115
a(F0.76
F0.65
F0.81
tp2116
a(F0.91
F0.83
F0.91
tp2117
a(F0.97
F0.97
F0.97
tp2118
a(F0.85
F0.94
F0.83
tp2119
a(F0.65
F0.86
F0.63
tp2120
a(F0.35
F0.68
F0.38
tp2121
a(F0.11
F0.47
F0.22
tp2122
a(F0.0
F0.27
F0.11
tp2123
asS'RdBu'
p2124
(lp2125
(F0.4
F0.0
F0.12
tp2126
a(F0.7
F0.09
F0.17
tp2127
a(F0.84
F0.38
F0.3
tp2128
a(F0.96
F0.65
F0.51
tp2129
a(F0.99
F0.86
F0.78
tp2130
a(F0.97
F0.97
F0.97
tp2131
a(F0.82
F0.9
F0.94
tp2132
a(F0.57
F0.77
F0.87
tp2133
a(F0.26
F0.58
F0.76
tp2134
a(F0.13
F0.4
F0.67
tp2135
a(F0.02
F0.19
F0.38
tp2136
asS'RdGy'
p2137
(lp2138
(F0.4
F0.0
F0.12
tp2139
a(F0.7
F0.09
F0.17
tp2140
a(F0.84
F0.38
F0.3
tp2141
a(F0.96
F0.65
F0.51
tp2142
a(F0.99
F0.86
F0.78
tp2143
a(F1.0
F1.0
F1.0
tp2144
a(F0.88
F0.88
F0.88
tp2145
a(F0.73
F0.73
F0.73
tp2146
a(F0.53
F0.53
F0.53
tp2147
a(F0.3
F0.3
F0.3
tp2148
a(F0.1
F0.1
F0.1
tp2149
asS'RdYlBu'
p2150
(lp2151
(F0.65
F0.0
F0.15
tp2152
a(F0.84
F0.19
F0.15
tp2153
a(F0.96
F0.43
F0.26
tp2154
a(F0.99
F0.68
F0.38
tp2155
a(F1.0
F0.88
F0.56
tp2156
a(F1.0
F1.0
F0.75
tp2157
a(F0.88
F0.95
F0.97
tp2158
a(F0.67
F0.85
F0.91
tp2159
a(F0.45
F0.68
F0.82
tp2160
a(F0.27
F0.46
F0.71
tp2161
a(F0.19
F0.21
F0.58
tp2162
asS'PiYG'
p2163
(lp2164
(F0.56
F0.0
F0.32
tp2165
a(F0.77
F0.11
F0.49
tp2166
a(F0.87
F0.47
F0.68
tp2167
a(F0.95
F0.71
F0.85
tp2168
a(F0.99
F0.88
F0.94
tp2169
a(F0.97
F0.97
F0.97
tp2170
a(F0.9
F0.96
F0.82
tp2171
a(F0.72
F0.88
F0.53
tp2172
a(F0.5
F0.74
F0.25
tp2173
a(F0.3
F0.57
F0.13
tp2174
a(F0.15
F0.39
F0.1
tp2175
asS'PuOr'
p2176
(lp2177
(F0.5
F0.23
F0.03
tp2178
a(F0.7
F0.35
F0.02
tp2179
a(F0.88
F0.51
F0.08
tp2180
a(F0.99
F0.72
F0.39
tp2181
a(F1.0
F0.88
F0.71
tp2182
a(F0.97
F0.97
F0.97
tp2183
a(F0.85
F0.85
F0.92
tp2184
a(F0.7
F0.67
F0.82
tp2185
a(F0.5
F0.45
F0.67
tp2186
a(F0.33
F0.15
F0.53
tp2187
a(F0.18
F0.0
F0.29
tp2188
asS'BrBG'
p2189
(lp2190
(F0.33
F0.19
F0.02
tp2191
a(F0.55
F0.32
F0.04
tp2192
a(F0.75
F0.51
F0.18
tp2193
a(F0.87
F0.76
F0.49
tp2194
a(F0.96
F0.91
F0.76
tp2195
a(F0.96
F0.96
F0.96
tp2196
a(F0.78
F0.92
F0.9
tp2197
a(F0.5
F0.8
F0.76
tp2198
a(F0.21
F0.59
F0.56
tp2199
a(F0.0
F0.4
F0.37
tp2200
a(F0.0
F0.24
F0.19
tp2201
assg49
(dp2202
S'Paired'
p2203
(lp2204
(F0.65
F0.81
F0.89
tp2205
a(F0.12
F0.47
F0.71
tp2206
a(F0.7
F0.87
F0.54
tp2207
a(F0.2
F0.63
F0.17
tp2208
a(F0.98
F0.6
F0.6
tp2209
a(F0.89
F0.1
F0.11
tp2210
a(F0.99
F0.75
F0.44
tp2211
a(F1.0
F0.5
F0.0
tp2212
a(F0.79
F0.7
F0.84
tp2213
a(F0.42
F0.24
F0.6
tp2214
a(F1.0
F1.0
F0.6
tp2215
asS'Set3'
p2216
(lp2217
(F0.55
F0.83
F0.78
tp2218
a(F1.0
F1.0
F0.7
tp2219
a(F0.75
F0.73
F0.85
tp2220
a(F0.98
F0.5
F0.45
tp2221
a(F0.5
F0.69
F0.83
tp2222
a(F0.99
F0.71
F0.38
tp2223
a(F0.7
F0.87
F0.41
tp2224
a(F0.99
F0.8
F0.9
tp2225
a(F0.85
F0.85
F0.85
tp2226
a(F0.74
F0.5
F0.74
tp2227
a(F0.8
F0.92
F0.77
tp2228
asssI12
(dp2229
g49
(dp2230
S'Paired'
p2231
(lp2232
(F0.65
F0.81
F0.89
tp2233
a(F0.12
F0.47
F0.71
tp2234
a(F0.7
F0.87
F0.54
tp2235
a(F0.2
F0.63
F0.17
tp2236
a(F0.98
F0.6
F0.6
tp2237
a(F0.89
F0.1
F0.11
tp2238
a(F0.99
F0.75
F0.44
tp2239
a(F1.0
F0.5
F0.0
tp2240
a(F0.79
F0.7
F0.84
tp2241
a(F0.42
F0.24
F0.6
tp2242
a(F1.0
F1.0
F0.6
tp2243
a(F0.69
F0.35
F0.16
tp2244
asS'Set3'
p2245
(lp2246
(F0.55
F0.83
F0.78
tp2247
a(F1.0
F1.0
F0.7
tp2248
a(F0.75
F0.73
F0.85
tp2249
a(F0.98
F0.5
F0.45
tp2250
a(F0.5
F0.69
F0.83
tp2251
a(F0.99
F0.71
F0.38
tp2252
a(F0.7
F0.87
F0.41
tp2253
a(F0.99
F0.8
F0.9
tp2254
a(F0.85
F0.85
F0.85
tp2255
a(F0.74
F0.5
F0.74
tp2256
a(F0.8
F0.92
F0.77
tp2257
a(F1.0
F0.93
F0.44
tp2258
asss.